target datalayout = "e-m:e-p270:32:32-p271:32:32-p272:64:64-i64:64-i128:128-f80:128-n8:16:32:64-S128"
target triple = "x86_64-pc-linux-gnu"

@hf_control_pwr_phy = internal global i32 0, align 4
@hf_control_delta = internal global i32 0, align 4
@hf_control_txpwr = internal global i32 0, align 4
@ett_pwr_phy = internal global i32 0, align 4
@hfx_control_pwr_phy = internal constant [6 x ptr] [ptr @hf_control_pwr_phy_le_1m_phy, ptr @hf_control_pwr_phy_le_2m_phy, ptr @hf_control_pwr_phy_le_coded_s8_phy, ptr @hf_control_pwr_phy_le_coded_s2_phy, ptr @hf_control_pwr_phy_reserved_bits, ptr null], align 16

; Function Attrs: null_pointer_is_valid sspstrong uwtable
define internal i32 @dissect_power_control_req(ptr noundef %0, ptr noundef %1, i32 noundef %2) #0 {
  %4 = alloca ptr, align 8
  %5 = alloca ptr, align 8
  %6 = alloca i32, align 4
  store ptr %0, ptr %4, align 8
  store ptr %1, ptr %5, align 8
  store i32 %2, ptr %6, align 4
  %7 = load ptr, ptr %5, align 8
  %8 = load ptr, ptr %4, align 8
  %9 = load i32, ptr %6, align 4
  %10 = load i32, ptr @hf_control_pwr_phy, align 4
  %11 = load i32, ptr @ett_pwr_phy, align 4
  %12 = call ptr @proto_tree_add_bitmask(ptr noundef %7, ptr noundef %8, i32 noundef %9, i32 noundef %10, i32 noundef %11, ptr noundef @hfx_control_pwr_phy, i32 noundef 0)
  %13 = load i32, ptr %6, align 4
  %14 = add i32 %13, 1
  store i32 %14, ptr %6, align 4
  %15 = load ptr, ptr %5, align 8
  %16 = load i32, ptr @hf_control_delta, align 4
  %17 = load ptr, ptr %4, align 8
  %18 = load i32, ptr %6, align 4
  %19 = call ptr @proto_tree_add_item(ptr noundef %15, i32 noundef %16, ptr noundef %17, i32 noundef %18, i32 noundef 1, i32 noundef 0)
  %20 = load i32, ptr %6, align 4
  %21 = add i32 %20, 1
  store i32 %21, ptr %6, align 4
  %22 = load ptr, ptr %5, align 8
  %23 = load i32, ptr @hf_control_txpwr, align 4
  %24 = load ptr, ptr %4, align 8
  %25 = load i32, ptr %6, align 4
  %26 = call ptr @proto_tree_add_item(ptr noundef %22, i32 noundef %23, ptr noundef %24, i32 noundef %25, i32 noundef 1, i32 noundef 0)
  %27 = load i32, ptr %6, align 4
  %28 = add i32 %27, 1
  store i32 %28, ptr %6, align 4
  %29 = load i32, ptr %6, align 4
  ret i32 %29
}